; ModuleID = '19/664.c'
source_filename = "19/664.c"
target datalayout = "e-m:e-p270:32:32-p271:32:32-p272:64:64-i64:64-f80:128-n8:16:32:64-S128"
target triple = "x86_64-pc-linux-gnu"

@.str = private unnamed_addr constant [3 x i8] c"%c\00", align 1

; Function Attrs: noinline nounwind uwtable
define dso_local i32 @main() #0 {
  %1 = alloca i32, align 4
  %2 = alloca [100 x i8], align 16
  %3 = alloca [100 x i8], align 16
  %4 = alloca [100 x i8], align 16
  %5 = alloca i32, align 4
  %6 = alloca i32, align 4
  %7 = alloca i32, align 4
  %8 = alloca i32, align 4
  %9 = alloca i32, align 4
  %10 = alloca i32, align 4
  %11 = alloca [100 x i8], align 16
  store i32 0, i32* %1, align 4
  %12 = getelementptr inbounds [100 x i8], [100 x i8]* %2, i64 0, i64 0
  %13 = call i32 (i8*, ...) bitcast (i32 (...)* @gets to i32 (i8*, ...)*)(i8* %12)
  %14 = getelementptr inbounds [100 x i8], [100 x i8]* %3, i64 0, i64 0
  %15 = call i32 (i8*, ...) bitcast (i32 (...)* @gets to i32 (i8*, ...)*)(i8* %14)
  %16 = getelementptr inbounds [100 x i8], [100 x i8]* %4, i64 0, i64 0
  %17 = call i32 (i8*, ...) bitcast (i32 (...)* @gets to i32 (i8*, ...)*)(i8* %16)
  %18 = getelementptr inbounds [100 x i8], [100 x i8]* %2, i64 0, i64 0
  %19 = call i64 @strlen(i8* %18) #4
  %20 = trunc i64 %19 to i32
  store i32 %20, i32* %5, align 4
  %21 = getelementptr inbounds [100 x i8], [100 x i8]* %3, i64 0, i64 0
  %22 = call i64 @strlen(i8* %21) #4
  %23 = trunc i64 %22 to i32
  store i32 %23, i32* %6, align 4
  %24 = getelementptr inbounds [100 x i8], [100 x i8]* %4, i64 0, i64 0
  %25 = call i64 @strlen(i8* %24) #4
  %26 = trunc i64 %25 to i32
  store i32 %26, i32* %7, align 4
  store i32 0, i32* %8, align 4
  br label %27

27:                                               ; preds = %147, %0
  %28 = load i32, i32* %8, align 4
  %29 = load i32, i32* %5, align 4
  %30 = icmp slt i32 %28, %29
  br i1 %30, label %31, label %150

31:                                               ; preds = %27
  %32 = load i32, i32* %8, align 4
  %33 = sext i32 %32 to i64
  %34 = getelementptr inbounds [100 x i8], [100 x i8]* %2, i64 0, i64 %33
  %35 = load i8, i8* %34, align 1
  %36 = sext i8 %35 to i32
  %37 = getelementptr inbounds [100 x i8], [100 x i8]* %3, i64 0, i64 0
  %38 = load i8, i8* %37, align 16
  %39 = sext i8 %38 to i32
  %40 = icmp eq i32 %36, %39
  br i1 %40, label %41, label %49

41:                                               ; preds = %31
  %42 = load i32, i32* %8, align 4
  %43 = sub nsw i32 %42, 1
  %44 = sext i32 %43 to i64
  %45 = getelementptr inbounds [100 x i8], [100 x i8]* %2, i64 0, i64 %44
  %46 = load i8, i8* %45, align 1
  %47 = sext i8 %46 to i32
  %48 = icmp eq i32 %47, 32
  br i1 %48, label %57, label %49

49:                                               ; preds = %41, %31
  %50 = getelementptr inbounds [100 x i8], [100 x i8]* %2, i64 0, i64 0
  %51 = load i8, i8* %50, align 16
  %52 = sext i8 %51 to i32
  %53 = getelementptr inbounds [100 x i8], [100 x i8]* %3, i64 0, i64 0
  %54 = load i8, i8* %53, align 16
  %55 = sext i8 %54 to i32
  %56 = icmp eq i32 %52, %55
  br i1 %56, label %57, label %146

57:                                               ; preds = %49, %41
  store i32 1, i32* %10, align 4
  store i32 1, i32* %9, align 4
  br label %58

58:                                               ; preds = %78, %57
  %59 = load i32, i32* %9, align 4
  %60 = load i32, i32* %6, align 4
  %61 = icmp slt i32 %59, %60
  br i1 %61, label %62, label %81

62:                                               ; preds = %58
  %63 = load i32, i32* %8, align 4
  %64 = load i32, i32* %9, align 4
  %65 = add nsw i32 %63, %64
  %66 = sext i32 %65 to i64
  %67 = getelementptr inbounds [100 x i8], [100 x i8]* %2, i64 0, i64 %66
  %68 = load i8, i8* %67, align 1
  %69 = sext i8 %68 to i32
  %70 = load i32, i32* %9, align 4
  %71 = sext i32 %70 to i64
  %72 = getelementptr inbounds [100 x i8], [100 x i8]* %3, i64 0, i64 %71
  %73 = load i8, i8* %72, align 1
  %74 = sext i8 %73 to i32
  %75 = icmp ne i32 %69, %74
  br i1 %75, label %76, label %77

76:                                               ; preds = %62
  store i32 2, i32* %10, align 4
  br label %77

77:                                               ; preds = %76, %62
  br label %78

78:                                               ; preds = %77
  %79 = load i32, i32* %9, align 4
  %80 = add nsw i32 %79, 1
  store i32 %80, i32* %9, align 4
  br label %58

81:                                               ; preds = %58
  %82 = load i32, i32* %10, align 4
  %83 = icmp eq i32 %82, 1
  br i1 %83, label %84, label %145

84:                                               ; preds = %81
  %85 = getelementptr inbounds [100 x i8], [100 x i8]* %11, i64 0, i64 0
  %86 = getelementptr inbounds [100 x i8], [100 x i8]* %2, i64 0, i64 0
  %87 = call i8* @strcpy(i8* %85, i8* %86) #5
  %88 = load i32, i32* %8, align 4
  store i32 %88, i32* %9, align 4
  br label %89

89:                                               ; preds = %105, %84
  %90 = load i32, i32* %9, align 4
  %91 = load i32, i32* %8, align 4
  %92 = load i32, i32* %7, align 4
  %93 = add nsw i32 %91, %92
  %94 = icmp slt i32 %90, %93
  br i1 %94, label %95, label %108

95:                                               ; preds = %89
  %96 = load i32, i32* %9, align 4
  %97 = load i32, i32* %8, align 4
  %98 = sub nsw i32 %96, %97
  %99 = sext i32 %98 to i64
  %100 = getelementptr inbounds [100 x i8], [100 x i8]* %4, i64 0, i64 %99
  %101 = load i8, i8* %100, align 1
  %102 = load i32, i32* %9, align 4
  %103 = sext i32 %102 to i64
  %104 = getelementptr inbounds [100 x i8], [100 x i8]* %2, i64 0, i64 %103
  store i8 %101, i8* %104, align 1
  br label %105

105:                                              ; preds = %95
  %106 = load i32, i32* %9, align 4
  %107 = add nsw i32 %106, 1
  store i32 %107, i32* %9, align 4
  br label %89

108:                                              ; preds = %89
  %109 = load i32, i32* %8, align 4
  %110 = load i32, i32* %7, align 4
  %111 = add nsw i32 %109, %110
  store i32 %111, i32* %9, align 4
  br label %112

112:                                              ; preds = %132, %108
  %113 = load i32, i32* %9, align 4
  %114 = load i32, i32* %5, align 4
  %115 = load i32, i32* %7, align 4
  %116 = add nsw i32 %114, %115
  %117 = load i32, i32* %6, align 4
  %118 = sub nsw i32 %116, %117
  %119 = icmp slt i32 %113, %118
  br i1 %119, label %120, label %135

120:                                              ; preds = %112
  %121 = load i32, i32* %9, align 4
  %122 = load i32, i32* %7, align 4
  %123 = sub nsw i32 %121, %122
  %124 = load i32, i32* %6, align 4
  %125 = add nsw i32 %123, %124
  %126 = sext i32 %125 to i64
  %127 = getelementptr inbounds [100 x i8], [100 x i8]* %11, i64 0, i64 %126
  %128 = load i8, i8* %127, align 1
  %129 = load i32, i32* %9, align 4
  %130 = sext i32 %129 to i64
  %131 = getelementptr inbounds [100 x i8], [100 x i8]* %2, i64 0, i64 %130
  store i8 %128, i8* %131, align 1
  br label %132

132:                                              ; preds = %120
  %133 = load i32, i32* %9, align 4
  %134 = add nsw i32 %133, 1
  store i32 %134, i32* %9, align 4
  br label %112

135:                                              ; preds = %112
  %136 = load i32, i32* %5, align 4
  %137 = load i32, i32* %6, align 4
  %138 = sub nsw i32 %136, %137
  %139 = load i32, i32* %7, align 4
  %140 = add nsw i32 %138, %139
  store i32 %140, i32* %5, align 4
  %141 = load i32, i32* %8, align 4
  %142 = load i32, i32* %7, align 4
  %143 = add nsw i32 %141, %142
  %144 = sub nsw i32 %143, 1
  store i32 %144, i32* %8, align 4
  br label %145

145:                                              ; preds = %135, %81
  br label %146

146:                                              ; preds = %145, %49
  br label %147

147:                                              ; preds = %146
  %148 = load i32, i32* %8, align 4
  %149 = add nsw i32 %148, 1
  store i32 %149, i32* %8, align 4
  br label %27

150:                                              ; preds = %27
  store i32 0, i32* %8, align 4
  br label %151

151:                                              ; preds = %162, %150
  %152 = load i32, i32* %8, align 4
  %153 = load i32, i32* %5, align 4
  %154 = icmp slt i32 %152, %153
  br i1 %154, label %155, label %165

155:                                              ; preds = %151
  %156 = load i32, i32* %8, align 4
  %157 = sext i32 %156 to i64
  %158 = getelementptr inbounds [100 x i8], [100 x i8]* %2, i64 0, i64 %157
  %159 = load i8, i8* %158, align 1
  %160 = sext i8 %159 to i32
  %161 = call i32 (i8*, ...) @printf(i8* getelementptr inbounds ([3 x i8], [3 x i8]* @.str, i64 0, i64 0), i32 %160)
  br label %162

162:                                              ; preds = %155
  %163 = load i32, i32* %8, align 4
  %164 = add nsw i32 %163, 1
  store i32 %164, i32* %8, align 4
  br label %151

165:                                              ; preds = %151
  ret i32 0
}

declare dso_local i32 @gets(...) #1

; Function Attrs: nounwind readonly
declare dso_local i64 @strlen(i8*) #2

; Function Attrs: nounwind
declare dso_local i8* @strcpy(i8*, i8*) #3

declare dso_local i32 @printf(i8*, ...) #1


!llvm.module.flags = !{!0}
!llvm.ident = !{!1}

!0 = !{i32 1, !"wchar_size", i32 4}
!1 = !{!"clang version 10.0.0-4ubuntu1 "}
